target datalayout = "e-m:e-p270:32:32-p271:32:32-p272:64:64-i64:64-i128:128-f80:128-n8:16:32:64-S128"
target triple = "x86_64-pc-linux-gnu"

; Function Attrs: nounwind uwtable
define internal void @spatial_compensation_3(ptr noalias noundef %0, ptr noalias noundef %1, i64 noundef %2) #1 {
  %4 = alloca ptr, align 8
  %5 = alloca ptr, align 8
  %6 = alloca i64, align 8
  %7 = alloca i32, align 4
  store ptr %0, ptr %4, align 8, !tbaa !14
  store ptr %1, ptr %5, align 8, !tbaa !14
  store i64 %2, ptr %6, align 8, !tbaa !16
  call void @llvm.lifetime.start.p0(i64 4, ptr %7) #6
  store i32 0, ptr %7, align 4, !tbaa !18
  br label %8

8:                                                ; preds = %25, %3
  %9 = load i32, ptr %7, align 4, !tbaa !18
  %10 = icmp slt i32 %9, 8
  br i1 %10, label %12, label %11

11:                                               ; preds = %8
  call void @llvm.lifetime.end.p0(i64 4, ptr %7) #6
  br label %28

12:                                               ; preds = %8
  %13 = load ptr, ptr %4, align 8, !tbaa !14
  %14 = getelementptr inbounds i8, ptr %13, i64 17
  %15 = load i32, ptr %7, align 4, !tbaa !18
  %16 = add nsw i32 %15, 1
  %17 = ashr i32 %16, 1
  %18 = sext i32 %17 to i64
  %19 = getelementptr inbounds i8, ptr %14, i64 %18
  %20 = load i64, ptr %19, align 1, !tbaa !22
  %21 = load ptr, ptr %5, align 8, !tbaa !14
  store i64 %20, ptr %21, align 1, !tbaa !22
  %22 = load i64, ptr %6, align 8, !tbaa !16
  %23 = load ptr, ptr %5, align 8, !tbaa !14
  %24 = getelementptr inbounds i8, ptr %23, i64 %22
  store ptr %24, ptr %5, align 8, !tbaa !14
  br label %25

25:                                               ; preds = %12
  %26 = load i32, ptr %7, align 4, !tbaa !18
  %27 = add nsw i32 %26, 1
  store i32 %27, ptr %7, align 4, !tbaa !18
  br label %8, !llvm.loop !42

28:                                               ; preds = %11
  ret void
}