; Function Attrs: nofree norecurse nosync nounwind memory(argmem: readwrite) uwtable
define internal void @spatial_compensation_3(ptr noalias noundef readonly captures(none) %0, ptr noalias noundef writeonly captures(none) %1, i64 noundef %2) #1 {
  %4 = getelementptr inbounds nuw i8, ptr %0, i64 17
  br label %6

5:                                                ; preds = %6
  ret void

6:                                                ; preds = %3, %6
  %.08 = phi i32 [ 0, %3 ], [ %7, %6 ]
  %.067 = phi ptr [ %1, %3 ], [ %12, %6 ]
  %7 = add nuw nsw i32 %.08, 1
  %8 = lshr i32 %7, 1
  %9 = zext nneg i32 %8 to i64
  %10 = getelementptr inbounds nuw i8, ptr %4, i64 %9
  %11 = load i64, ptr %10, align 1, !tbaa !14
  store i64 %11, ptr %.067, align 1, !tbaa !14
  %12 = getelementptr inbounds i8, ptr %.067, i64 %2
  %exitcond.not = icmp eq i32 %7, 8
  br i1 %exitcond.not, label %5, label %6, !llvm.loop !33
}